; Function Attrs: mustprogress uwtable
define internal noundef zeroext i1 @_ZN12_GLOBAL__N_117EnvironmentHelperERSt8optionalINSt7__cxx1112basic_stringIcSt11char_traitsIcESaIcEEEEPKN4Json5ValueEP11cmJSONState(ptr noundef nonnull align 8 dereferenceable(40) %0, ptr noundef %1, ptr noundef %2) #3 personality ptr @__gxx_personality_v0 {
  %4 = alloca %"class.std::__cxx11::basic_string", align 8
  %.not = icmp eq ptr %1, null
  br i1 %.not, label %7, label %5

5:                                                ; preds = %3
  %6 = tail call noundef zeroext i1 @_ZNK4Json5Value6isNullEv(ptr noundef nonnull align 8 dereferenceable(40) %1)
  br i1 %6, label %7, label %12

7:                                                ; preds = %5, %3
  %8 = getelementptr inbounds i8, ptr %0, i64 32
  %9 = load i8, ptr %8, align 8
  %10 = and i8 %9, 1
  %.not.i.i.i = icmp eq i8 %10, 0
  br i1 %.not.i.i.i, label %_ZNSt8optionalINSt7__cxx1112basic_stringIcSt11char_traitsIcESaIcEEEEaSESt9nullopt_t.exit, label %11

11:                                               ; preds = %7
  store i8 0, ptr %8, align 8
  tail call void @_ZNSt7__cxx1112basic_stringIcSt11char_traitsIcESaIcEED1Ev(ptr noundef nonnull align 8 dereferenceable(32) %0) #23
  br label %_ZNSt8optionalINSt7__cxx1112basic_stringIcSt11char_traitsIcESaIcEEEEaSESt9nullopt_t.exit

12:                                               ; preds = %5
  %13 = tail call noundef zeroext i1 @_ZNK4Json5Value8isStringEv(ptr noundef nonnull align 8 dereferenceable(40) %1)
  br i1 %13, label %14, label %21

14:                                               ; preds = %12
  call void @_ZNK4Json5Value8asStringB5cxx11Ev(ptr dead_on_unwind nonnull writable sret(%"class.std::__cxx11::basic_string") align 8 %4, ptr noundef nonnull align 8 dereferenceable(40) %1)
  %15 = getelementptr inbounds i8, ptr %0, i64 32
  %16 = load i8, ptr %15, align 8
  %17 = and i8 %16, 1
  %.not.i = icmp eq i8 %17, 0
  br i1 %.not.i, label %20, label %18

18:                                               ; preds = %14
  %19 = call noundef nonnull align 8 dereferenceable(32) ptr @_ZNSt7__cxx1112basic_stringIcSt11char_traitsIcESaIcEEaSEOS4_(ptr noundef nonnull align 8 dereferenceable(32) %0, ptr noundef nonnull align 8 dereferenceable(32) %4) #23
  br label %_ZNSt8optionalINSt7__cxx1112basic_stringIcSt11char_traitsIcESaIcEEEEaSIS5_EENSt9enable_ifIX7__and_vISt6__not_ISt7is_sameIS6_NSt9remove_cvINSt16remove_referenceIT_E4typeEE4typeEEES9_ISt6__and_IJSt9is_scalarIS5_ESA_IS5_NSt5decayISD_E4typeEEEEESt16is_constructibleIS5_JSD_EESt13is_assignableIRS5_SD_EEERS6_E4typeEOSD_.exit

20:                                               ; preds = %14
  call void @_ZNSt7__cxx1112basic_stringIcSt11char_traitsIcESaIcEEC1EOS4_(ptr noundef nonnull align 8 dereferenceable(32) %0, ptr noundef nonnull align 8 dereferenceable(32) %4) #23
  store i8 1, ptr %15, align 8
  br label %_ZNSt8optionalINSt7__cxx1112basic_stringIcSt11char_traitsIcESaIcEEEEaSIS5_EENSt9enable_ifIX7__and_vISt6__not_ISt7is_sameIS6_NSt9remove_cvINSt16remove_referenceIT_E4typeEE4typeEEES9_ISt6__and_IJSt9is_scalarIS5_ESA_IS5_NSt5decayISD_E4typeEEEEESt16is_constructibleIS5_JSD_EESt13is_assignableIRS5_SD_EEERS6_E4typeEOSD_.exit

_ZNSt8optionalINSt7__cxx1112basic_stringIcSt11char_traitsIcESaIcEEEEaSIS5_EENSt9enable_ifIX7__and_vISt6__not_ISt7is_sameIS6_NSt9remove_cvINSt16remove_referenceIT_E4typeEE4typeEEES9_ISt6__and_IJSt9is_scalarIS5_ESA_IS5_NSt5decayISD_E4typeEEEEESt16is_constructibleIS5_JSD_EESt13is_assignableIRS5_SD_EEERS6_E4typeEOSD_.exit: ; preds = %18, %20
  call void @_ZNSt7__cxx1112basic_stringIcSt11char_traitsIcESaIcEED1Ev(ptr noundef nonnull align 8 dereferenceable(32) %4) #23
  br label %_ZNSt8optionalINSt7__cxx1112basic_stringIcSt11char_traitsIcESaIcEEEEaSESt9nullopt_t.exit

21:                                               ; preds = %12
  tail call void @_ZN20cmCMakePresetsErrors14INVALID_PRESETEPKN4Json5ValueEP11cmJSONState(ptr noundef nonnull %1, ptr noundef %2)
  br label %_ZNSt8optionalINSt7__cxx1112basic_stringIcSt11char_traitsIcESaIcEEEEaSESt9nullopt_t.exit

_ZNSt8optionalINSt7__cxx1112basic_stringIcSt11char_traitsIcESaIcEEEEaSESt9nullopt_t.exit: ; preds = %11, %7, %21, %_ZNSt8optionalINSt7__cxx1112basic_stringIcSt11char_traitsIcESaIcEEEEaSIS5_EENSt9enable_ifIX7__and_vISt6__not_ISt7is_sameIS6_NSt9remove_cvINSt16remove_referenceIT_E4typeEE4typeEEES9_ISt6__and_IJSt9is_scalarIS5_ESA_IS5_NSt5decayISD_E4typeEEEEESt16is_constructibleIS5_JSD_EESt13is_assignableIRS5_SD_EEERS6_E4typeEOSD_.exit
  %.0 = phi i1 [ true, %_ZNSt8optionalINSt7__cxx1112basic_stringIcSt11char_traitsIcESaIcEEEEaSIS5_EENSt9enable_ifIX7__and_vISt6__not_ISt7is_sameIS6_NSt9remove_cvINSt16remove_referenceIT_E4typeEE4typeEEES9_ISt6__and_IJSt9is_scalarIS5_ESA_IS5_NSt5decayISD_E4typeEEEEESt16is_constructibleIS5_JSD_EESt13is_assignableIRS5_SD_EEERS6_E4typeEOSD_.exit ], [ false, %21 ], [ true, %7 ], [ true, %11 ]
  ret i1 %.0
}